target datalayout = "e-m:e-p270:32:32-p271:32:32-p272:64:64-i64:64-i128:128-f80:128-n8:16:32:64-S128"
target triple = "x86_64-pc-linux-gnu"

%struct.slurm_opt_t = type { ptr, ptr, ptr, ptr, ptr, ptr, ptr, ptr, i32, ptr, ptr, ptr, ptr, i32, i32, ptr, i32, i8, i8, i32, i8, i32, i32, ptr, i8, i32, i32, i64, i32, i32, i32, i32, i32, i32, ptr, i32, ptr, i8, i32, i32, ptr, i32, i32, i32, ptr, ptr, i32, i32, ptr, ptr, ptr, i32, i16, i16, i16, i8, i8, ptr, i8, i16, ptr, ptr, i32, i32, i32, ptr, ptr, ptr, ptr, ptr, ptr, i32, i64, i64, i64, i16, i64, ptr, ptr, ptr, ptr, ptr, ptr, ptr, i8, ptr, ptr, ptr, ptr, i8, i64, ptr, i16, ptr, i32, i32, ptr, ptr, i32, i32, i32, ptr, i32, i32, i32, i32, i32, ptr, i64, i32, i16, i32, ptr, ptr, ptr, ptr, ptr, i16, ptr, ptr, i16, i8, ptr, ptr, ptr, ptr }

@.str.105 = private unnamed_addr constant [2 x i8] c"=\00", align 1
@.str.106 = private unnamed_addr constant [6 x i8] c"opt.c\00", align 1
@__func__.spank_set_job_env = private unnamed_addr constant [18 x i8] c"spank_set_job_env\00", align 1

; Function Attrs: nounwind uwtable
define dso_local i32 @spank_set_job_env(ptr noundef %0, ptr noundef %1, i32 noundef %2) #0 {
  %4 = alloca i32, align 4
  %5 = alloca ptr, align 8
  %6 = alloca ptr, align 8
  %7 = alloca i32, align 4
  %8 = alloca i32, align 4
  %9 = alloca i32, align 4
  %10 = alloca ptr, align 8
  %11 = alloca i32, align 4
  store ptr %0, ptr %5, align 8
  store ptr %1, ptr %6, align 8
  store i32 %2, ptr %7, align 4
  call void @llvm.lifetime.start.p0(i64 4, ptr %8) #9
  call void @llvm.lifetime.start.p0(i64 4, ptr %9) #9
  call void @llvm.lifetime.start.p0(i64 8, ptr %10) #9
  store ptr null, ptr %10, align 8
  %12 = load ptr, ptr %5, align 8
  %13 = icmp eq ptr %12, null
  br i1 %13, label %24, label %14

14:                                               ; preds = %3
  %15 = load ptr, ptr %5, align 8
  %16 = getelementptr inbounds i8, ptr %15, i64 0
  %17 = load i8, ptr %16, align 1
  %18 = sext i8 %17 to i32
  %19 = icmp eq i32 %18, 0
  br i1 %19, label %24, label %20

20:                                               ; preds = %14
  %21 = load ptr, ptr %5, align 8
  %22 = call ptr @strchr(ptr noundef %21, i32 noundef 61) #11
  %23 = icmp ne ptr %22, null
  br i1 %23, label %24, label %26

24:                                               ; preds = %20, %14, %3
  %25 = call ptr @__errno_location() #13
  store i32 22, ptr %25, align 4
  store i32 -1, ptr %4, align 4
  store i32 1, ptr %11, align 4
  br label %78

26:                                               ; preds = %20
  %27 = load ptr, ptr %5, align 8
  call void @_xstrcat(ptr noundef %10, ptr noundef %27)
  call void @_xstrcat(ptr noundef %10, ptr noundef @.str.105)
  %28 = load ptr, ptr %10, align 8
  %29 = call i64 @strlen(ptr noundef %28) #11
  %30 = trunc i64 %29 to i32
  store i32 %30, ptr %9, align 4
  %31 = load ptr, ptr %6, align 8
  call void @_xstrcat(ptr noundef %10, ptr noundef %31)
  store i32 0, ptr %8, align 4
  br label %32

32:                                               ; preds = %63, %26
  %33 = load i32, ptr %8, align 4
  %34 = load i32, ptr getelementptr inbounds nuw (%struct.slurm_opt_t, ptr @opt, i32 0, i32 102), align 8
  %35 = icmp slt i32 %33, %34
  br i1 %35, label %36, label %66

36:                                               ; preds = %32
  %37 = load ptr, ptr getelementptr inbounds nuw (%struct.slurm_opt_t, ptr @opt, i32 0, i32 101), align 8
  %38 = load i32, ptr %8, align 4
  %39 = sext i32 %38 to i64
  %40 = getelementptr inbounds ptr, ptr %37, i64 %39
  %41 = load ptr, ptr %40, align 8
  %42 = load ptr, ptr %10, align 8
  %43 = load i32, ptr %9, align 4
  %44 = sext i32 %43 to i64
  %45 = call i32 @xstrncmp(ptr noundef %41, ptr noundef %42, i64 noundef %44)
  %46 = icmp ne i32 %45, 0
  br i1 %46, label %47, label %48

47:                                               ; preds = %36
  br label %63

48:                                               ; preds = %36
  %49 = load i32, ptr %7, align 4
  %50 = icmp ne i32 %49, 0
  br i1 %50, label %51, label %61

51:                                               ; preds = %48
  %52 = load ptr, ptr getelementptr inbounds nuw (%struct.slurm_opt_t, ptr @opt, i32 0, i32 101), align 8
  %53 = load i32, ptr %8, align 4
  %54 = sext i32 %53 to i64
  %55 = getelementptr inbounds ptr, ptr %52, i64 %54
  call void @slurm_xfree(ptr noundef %55)
  %56 = load ptr, ptr %10, align 8
  %57 = load ptr, ptr getelementptr inbounds nuw (%struct.slurm_opt_t, ptr @opt, i32 0, i32 101), align 8
  %58 = load i32, ptr %8, align 4
  %59 = sext i32 %58 to i64
  %60 = getelementptr inbounds ptr, ptr %57, i64 %59
  store ptr %56, ptr %60, align 8
  br label %62

61:                                               ; preds = %48
  call void @slurm_xfree(ptr noundef %10)
  br label %62

62:                                               ; preds = %61, %51
  store i32 0, ptr %4, align 4
  store i32 1, ptr %11, align 4
  br label %78

63:                                               ; preds = %47
  %64 = load i32, ptr %8, align 4
  %65 = add nsw i32 %64, 1
  store i32 %65, ptr %8, align 4
  br label %32, !llvm.loop !26

66:                                               ; preds = %32
  %67 = load i32, ptr getelementptr inbounds nuw (%struct.slurm_opt_t, ptr @opt, i32 0, i32 102), align 8
  %68 = add nsw i32 %67, 1
  store i32 %68, ptr getelementptr inbounds nuw (%struct.slurm_opt_t, ptr @opt, i32 0, i32 102), align 8
  %69 = load i32, ptr getelementptr inbounds nuw (%struct.slurm_opt_t, ptr @opt, i32 0, i32 102), align 8
  %70 = sext i32 %69 to i64
  %71 = mul i64 8, %70
  %72 = call ptr @slurm_xrecalloc(ptr noundef getelementptr inbounds nuw (%struct.slurm_opt_t, ptr @opt, i32 0, i32 101), i64 noundef 1, i64 noundef %71, i1 noundef zeroext true, i1 noundef zeroext false, ptr noundef @.str.106, i32 noundef 1423, ptr noundef @__func__.spank_set_job_env)
  %73 = load ptr, ptr %10, align 8
  %74 = load ptr, ptr getelementptr inbounds nuw (%struct.slurm_opt_t, ptr @opt, i32 0, i32 101), align 8
  %75 = load i32, ptr %8, align 4
  %76 = sext i32 %75 to i64
  %77 = getelementptr inbounds ptr, ptr %74, i64 %76
  store ptr %73, ptr %77, align 8
  store i32 0, ptr %4, align 4
  store i32 1, ptr %11, align 4
  br label %78

78:                                               ; preds = %66, %62, %24
  call void @llvm.lifetime.end.p0(i64 8, ptr %10) #9
  call void @llvm.lifetime.end.p0(i64 4, ptr %9) #9
  call void @llvm.lifetime.end.p0(i64 4, ptr %8) #9
  %79 = load i32, ptr %4, align 4
  ret i32 %79
}