; Function Attrs: nounwind uwtable
define dso_local range(i32 -1, 1) i32 @spank_set_job_env(ptr noundef %0, ptr noundef %1, i32 noundef %2) local_unnamed_addr #0 {
  %4 = alloca ptr, align 8
  call void @llvm.lifetime.start.p0(i64 8, ptr nonnull %4) #17
  store ptr null, ptr %4, align 8
  %5 = icmp eq ptr %0, null
  br i1 %5, label %11, label %6

6:                                                ; preds = %3
  %7 = load i8, ptr %0, align 1
  %8 = icmp eq i8 %7, 0
  br i1 %8, label %11, label %9

9:                                                ; preds = %6
  %10 = tail call ptr @strchr(ptr noundef nonnull dereferenceable(1) %0, i32 noundef 61) #19
  %.not = icmp eq ptr %10, null
  br i1 %.not, label %13, label %11

11:                                               ; preds = %9, %6, %3
  %12 = tail call ptr @__errno_location() #20
  store i32 22, ptr %12, align 4
  br label %45

13:                                               ; preds = %9
  call void @_xstrcat(ptr noundef nonnull %4, ptr noundef nonnull %0) #17
  call void @_xstrcat(ptr noundef nonnull %4, ptr noundef nonnull @.str.105) #17
  %14 = load ptr, ptr %4, align 8
  %15 = call i64 @strlen(ptr noundef nonnull dereferenceable(1) %14) #19
  call void @_xstrcat(ptr noundef nonnull %4, ptr noundef %1) #17
  %16 = load i32, ptr getelementptr inbounds nuw (i8, ptr @opt, i64 656), align 8
  %17 = icmp sgt i32 %16, 0
  br i1 %17, label %.lr.ph, label %._crit_edge

.lr.ph:                                           ; preds = %13
  %sext = shl i64 %15, 32
  %18 = ashr exact i64 %sext, 32
  br label %19

19:                                               ; preds = %.lr.ph, %33
  %indvars.iv = phi i64 [ 0, %.lr.ph ], [ %indvars.iv.next, %33 ]
  %20 = load ptr, ptr getelementptr inbounds nuw (i8, ptr @opt, i64 648), align 8
  %21 = getelementptr inbounds nuw ptr, ptr %20, i64 %indvars.iv
  %22 = load ptr, ptr %21, align 8
  %23 = load ptr, ptr %4, align 8
  %24 = call i32 @xstrncmp(ptr noundef %22, ptr noundef %23, i64 noundef %18) #17
  %.not16 = icmp eq i32 %24, 0
  br i1 %.not16, label %25, label %33

25:                                               ; preds = %19
  %.not17 = icmp eq i32 %2, 0
  br i1 %.not17, label %32, label %26

26:                                               ; preds = %25
  %27 = load ptr, ptr getelementptr inbounds nuw (i8, ptr @opt, i64 648), align 8
  %28 = getelementptr inbounds nuw ptr, ptr %27, i64 %indvars.iv
  call void @slurm_xfree(ptr noundef %28) #17
  %29 = load ptr, ptr %4, align 8
  %30 = load ptr, ptr getelementptr inbounds nuw (i8, ptr @opt, i64 648), align 8
  %31 = getelementptr inbounds nuw ptr, ptr %30, i64 %indvars.iv
  store ptr %29, ptr %31, align 8
  br label %45

32:                                               ; preds = %25
  call void @slurm_xfree(ptr noundef nonnull %4) #17
  br label %45

33:                                               ; preds = %19
  %indvars.iv.next = add nuw nsw i64 %indvars.iv, 1
  %34 = load i32, ptr getelementptr inbounds nuw (i8, ptr @opt, i64 656), align 8
  %35 = sext i32 %34 to i64
  %36 = icmp slt i64 %indvars.iv.next, %35
  br i1 %36, label %19, label %._crit_edge.loopexit, !llvm.loop !25

._crit_edge.loopexit:                             ; preds = %33
  %37 = and i64 %indvars.iv.next, 4294967295
  br label %._crit_edge

._crit_edge:                                      ; preds = %._crit_edge.loopexit, %13
  %.013.lcssa = phi i64 [ 0, %13 ], [ %37, %._crit_edge.loopexit ]
  %.lcssa = phi i32 [ %16, %13 ], [ %34, %._crit_edge.loopexit ]
  %38 = add nsw i32 %.lcssa, 1
  store i32 %38, ptr getelementptr inbounds nuw (i8, ptr @opt, i64 656), align 8
  %39 = sext i32 %38 to i64
  %40 = shl nsw i64 %39, 3
  %41 = call ptr @slurm_xrecalloc(ptr noundef nonnull getelementptr inbounds nuw (i8, ptr @opt, i64 648), i64 noundef 1, i64 noundef %40, i1 noundef zeroext true, i1 noundef zeroext false, ptr noundef nonnull @.str.106, i32 noundef 1423, ptr noundef nonnull @__func__.spank_set_job_env) #17
  %42 = load ptr, ptr %4, align 8
  %43 = load ptr, ptr getelementptr inbounds nuw (i8, ptr @opt, i64 648), align 8
  %44 = getelementptr inbounds nuw ptr, ptr %43, i64 %.013.lcssa
  store ptr %42, ptr %44, align 8
  br label %45

45:                                               ; preds = %26, %32, %._crit_edge, %11
  %.0 = phi i32 [ -1, %11 ], [ 0, %._crit_edge ], [ 0, %32 ], [ 0, %26 ]
  call void @llvm.lifetime.end.p0(i64 8, ptr nonnull %4) #17
  ret i32 %.0
}